target datalayout = "e-m:e-p270:32:32-p271:32:32-p272:64:64-i64:64-i128:128-f80:128-n8:16:32:64-S128"
target triple = "x86_64-pc-linux-gnu"

%struct.Argon2_Context = type { ptr, i32, ptr, i32, ptr, i32, ptr, i32, ptr, i32, i32, i32, i32, i32, i32 }

; Function Attrs: nounwind ssp uwtable
define hidden i32 @_sodium_argon2_validate_inputs(ptr noundef %0) #0 {
  %2 = alloca i32, align 4
  %3 = alloca ptr, align 8
  store ptr %0, ptr %3, align 8
  %4 = load ptr, ptr %3, align 8
  %5 = icmp eq ptr null, %4
  br i1 %5, label %6, label %7

6:                                                ; preds = %1
  store i32 -25, ptr %2, align 4
  br label %183

7:                                                ; preds = %1
  %8 = load ptr, ptr %3, align 8
  %9 = getelementptr inbounds nuw %struct.Argon2_Context, ptr %8, i32 0, i32 0
  %10 = load ptr, ptr %9, align 8
  %11 = icmp eq ptr null, %10
  br i1 %11, label %12, label %13

12:                                               ; preds = %7
  store i32 -1, ptr %2, align 4
  br label %183

13:                                               ; preds = %7
  %14 = load ptr, ptr %3, align 8
  %15 = getelementptr inbounds nuw %struct.Argon2_Context, ptr %14, i32 0, i32 1
  %16 = load i32, ptr %15, align 8
  %17 = icmp ugt i32 16, %16
  br i1 %17, label %18, label %19

18:                                               ; preds = %13
  store i32 -2, ptr %2, align 4
  br label %183

19:                                               ; preds = %13
  %20 = load ptr, ptr %3, align 8
  %21 = getelementptr inbounds nuw %struct.Argon2_Context, ptr %20, i32 0, i32 1
  %22 = load i32, ptr %21, align 8
  %23 = icmp ult i32 -1, %22
  br i1 %23, label %24, label %25

24:                                               ; preds = %19
  store i32 -3, ptr %2, align 4
  br label %183

25:                                               ; preds = %19
  %26 = load ptr, ptr %3, align 8
  %27 = getelementptr inbounds nuw %struct.Argon2_Context, ptr %26, i32 0, i32 2
  %28 = load ptr, ptr %27, align 8
  %29 = icmp eq ptr null, %28
  br i1 %29, label %30, label %37

30:                                               ; preds = %25
  %31 = load ptr, ptr %3, align 8
  %32 = getelementptr inbounds nuw %struct.Argon2_Context, ptr %31, i32 0, i32 3
  %33 = load i32, ptr %32, align 8
  %34 = icmp ne i32 0, %33
  br i1 %34, label %35, label %36

35:                                               ; preds = %30
  store i32 -18, ptr %2, align 4
  br label %183

36:                                               ; preds = %30
  br label %37

37:                                               ; preds = %36, %25
  %38 = load ptr, ptr %3, align 8
  %39 = getelementptr inbounds nuw %struct.Argon2_Context, ptr %38, i32 0, i32 3
  %40 = load i32, ptr %39, align 8
  %41 = icmp ugt i32 0, %40
  br i1 %41, label %42, label %43

42:                                               ; preds = %37
  store i32 -4, ptr %2, align 4
  br label %183

43:                                               ; preds = %37
  %44 = load ptr, ptr %3, align 8
  %45 = getelementptr inbounds nuw %struct.Argon2_Context, ptr %44, i32 0, i32 3
  %46 = load i32, ptr %45, align 8
  %47 = icmp ult i32 -1, %46
  br i1 %47, label %48, label %49

48:                                               ; preds = %43
  store i32 -5, ptr %2, align 4
  br label %183

49:                                               ; preds = %43
  %50 = load ptr, ptr %3, align 8
  %51 = getelementptr inbounds nuw %struct.Argon2_Context, ptr %50, i32 0, i32 4
  %52 = load ptr, ptr %51, align 8
  %53 = icmp eq ptr null, %52
  br i1 %53, label %54, label %61

54:                                               ; preds = %49
  %55 = load ptr, ptr %3, align 8
  %56 = getelementptr inbounds nuw %struct.Argon2_Context, ptr %55, i32 0, i32 5
  %57 = load i32, ptr %56, align 8
  %58 = icmp ne i32 0, %57
  br i1 %58, label %59, label %60

59:                                               ; preds = %54
  store i32 -19, ptr %2, align 4
  br label %183

60:                                               ; preds = %54
  br label %61

61:                                               ; preds = %60, %49
  %62 = load ptr, ptr %3, align 8
  %63 = getelementptr inbounds nuw %struct.Argon2_Context, ptr %62, i32 0, i32 5
  %64 = load i32, ptr %63, align 8
  %65 = icmp ugt i32 8, %64
  br i1 %65, label %66, label %67

66:                                               ; preds = %61
  store i32 -6, ptr %2, align 4
  br label %183

67:                                               ; preds = %61
  %68 = load ptr, ptr %3, align 8
  %69 = getelementptr inbounds nuw %struct.Argon2_Context, ptr %68, i32 0, i32 5
  %70 = load i32, ptr %69, align 8
  %71 = icmp ult i32 -1, %70
  br i1 %71, label %72, label %73

72:                                               ; preds = %67
  store i32 -7, ptr %2, align 4
  br label %183

73:                                               ; preds = %67
  %74 = load ptr, ptr %3, align 8
  %75 = getelementptr inbounds nuw %struct.Argon2_Context, ptr %74, i32 0, i32 6
  %76 = load ptr, ptr %75, align 8
  %77 = icmp eq ptr null, %76
  br i1 %77, label %78, label %85

78:                                               ; preds = %73
  %79 = load ptr, ptr %3, align 8
  %80 = getelementptr inbounds nuw %struct.Argon2_Context, ptr %79, i32 0, i32 7
  %81 = load i32, ptr %80, align 8
  %82 = icmp ne i32 0, %81
  br i1 %82, label %83, label %84

83:                                               ; preds = %78
  store i32 -20, ptr %2, align 4
  br label %183

84:                                               ; preds = %78
  br label %98

85:                                               ; preds = %73
  %86 = load ptr, ptr %3, align 8
  %87 = getelementptr inbounds nuw %struct.Argon2_Context, ptr %86, i32 0, i32 7
  %88 = load i32, ptr %87, align 8
  %89 = icmp ugt i32 0, %88
  br i1 %89, label %90, label %91

90:                                               ; preds = %85
  store i32 -10, ptr %2, align 4
  br label %183

91:                                               ; preds = %85
  %92 = load ptr, ptr %3, align 8
  %93 = getelementptr inbounds nuw %struct.Argon2_Context, ptr %92, i32 0, i32 7
  %94 = load i32, ptr %93, align 8
  %95 = icmp ult i32 -1, %94
  br i1 %95, label %96, label %97

96:                                               ; preds = %91
  store i32 -11, ptr %2, align 4
  br label %183

97:                                               ; preds = %91
  br label %98

98:                                               ; preds = %97, %84
  %99 = load ptr, ptr %3, align 8
  %100 = getelementptr inbounds nuw %struct.Argon2_Context, ptr %99, i32 0, i32 8
  %101 = load ptr, ptr %100, align 8
  %102 = icmp eq ptr null, %101
  br i1 %102, label %103, label %110

103:                                              ; preds = %98
  %104 = load ptr, ptr %3, align 8
  %105 = getelementptr inbounds nuw %struct.Argon2_Context, ptr %104, i32 0, i32 9
  %106 = load i32, ptr %105, align 8
  %107 = icmp ne i32 0, %106
  br i1 %107, label %108, label %109

108:                                              ; preds = %103
  store i32 -21, ptr %2, align 4
  br label %183

109:                                              ; preds = %103
  br label %123

110:                                              ; preds = %98
  %111 = load ptr, ptr %3, align 8
  %112 = getelementptr inbounds nuw %struct.Argon2_Context, ptr %111, i32 0, i32 9
  %113 = load i32, ptr %112, align 8
  %114 = icmp ugt i32 0, %113
  br i1 %114, label %115, label %116

115:                                              ; preds = %110
  store i32 -8, ptr %2, align 4
  br label %183

116:                                              ; preds = %110
  %117 = load ptr, ptr %3, align 8
  %118 = getelementptr inbounds nuw %struct.Argon2_Context, ptr %117, i32 0, i32 9
  %119 = load i32, ptr %118, align 8
  %120 = icmp ult i32 -1, %119
  br i1 %120, label %121, label %122

121:                                              ; preds = %116
  store i32 -9, ptr %2, align 4
  br label %183

122:                                              ; preds = %116
  br label %123

123:                                              ; preds = %122, %109
  %124 = load ptr, ptr %3, align 8
  %125 = getelementptr inbounds nuw %struct.Argon2_Context, ptr %124, i32 0, i32 12
  %126 = load i32, ptr %125, align 4
  %127 = icmp ugt i32 1, %126
  br i1 %127, label %128, label %129

128:                                              ; preds = %123
  store i32 -16, ptr %2, align 4
  br label %183

129:                                              ; preds = %123
  %130 = load ptr, ptr %3, align 8
  %131 = getelementptr inbounds nuw %struct.Argon2_Context, ptr %130, i32 0, i32 12
  %132 = load i32, ptr %131, align 4
  %133 = icmp ult i32 16777215, %132
  br i1 %133, label %134, label %135

134:                                              ; preds = %129
  store i32 -17, ptr %2, align 4
  br label %183

135:                                              ; preds = %129
  %136 = load ptr, ptr %3, align 8
  %137 = getelementptr inbounds nuw %struct.Argon2_Context, ptr %136, i32 0, i32 11
  %138 = load i32, ptr %137, align 8
  %139 = icmp ugt i32 8, %138
  br i1 %139, label %140, label %141

140:                                              ; preds = %135
  store i32 -14, ptr %2, align 4
  br label %183

141:                                              ; preds = %135
  %142 = load ptr, ptr %3, align 8
  %143 = getelementptr inbounds nuw %struct.Argon2_Context, ptr %142, i32 0, i32 11
  %144 = load i32, ptr %143, align 8
  %145 = zext i32 %144 to i64
  %146 = icmp ult i64 4294967295, %145
  br i1 %146, label %147, label %148

147:                                              ; preds = %141
  store i32 -15, ptr %2, align 4
  br label %183

148:                                              ; preds = %141
  %149 = load ptr, ptr %3, align 8
  %150 = getelementptr inbounds nuw %struct.Argon2_Context, ptr %149, i32 0, i32 11
  %151 = load i32, ptr %150, align 8
  %152 = load ptr, ptr %3, align 8
  %153 = getelementptr inbounds nuw %struct.Argon2_Context, ptr %152, i32 0, i32 12
  %154 = load i32, ptr %153, align 4
  %155 = mul i32 8, %154
  %156 = icmp ult i32 %151, %155
  br i1 %156, label %157, label %158

157:                                              ; preds = %148
  store i32 -14, ptr %2, align 4
  br label %183

158:                                              ; preds = %148
  %159 = load ptr, ptr %3, align 8
  %160 = getelementptr inbounds nuw %struct.Argon2_Context, ptr %159, i32 0, i32 10
  %161 = load i32, ptr %160, align 4
  %162 = icmp ugt i32 1, %161
  br i1 %162, label %163, label %164

163:                                              ; preds = %158
  store i32 -12, ptr %2, align 4
  br label %183

164:                                              ; preds = %158
  %165 = load ptr, ptr %3, align 8
  %166 = getelementptr inbounds nuw %struct.Argon2_Context, ptr %165, i32 0, i32 10
  %167 = load i32, ptr %166, align 4
  %168 = icmp ult i32 -1, %167
  br i1 %168, label %169, label %170

169:                                              ; preds = %164
  store i32 -13, ptr %2, align 4
  br label %183

170:                                              ; preds = %164
  %171 = load ptr, ptr %3, align 8
  %172 = getelementptr inbounds nuw %struct.Argon2_Context, ptr %171, i32 0, i32 13
  %173 = load i32, ptr %172, align 8
  %174 = icmp ugt i32 1, %173
  br i1 %174, label %175, label %176

175:                                              ; preds = %170
  store i32 -28, ptr %2, align 4
  br label %183

176:                                              ; preds = %170
  %177 = load ptr, ptr %3, align 8
  %178 = getelementptr inbounds nuw %struct.Argon2_Context, ptr %177, i32 0, i32 13
  %179 = load i32, ptr %178, align 8
  %180 = icmp ult i32 16777215, %179
  br i1 %180, label %181, label %182

181:                                              ; preds = %176
  store i32 -29, ptr %2, align 4
  br label %183

182:                                              ; preds = %176
  store i32 0, ptr %2, align 4
  br label %183

183:                                              ; preds = %182, %181, %175, %169, %163, %157, %147, %140, %134, %128, %121, %115, %108, %96, %90, %83, %72, %66, %59, %48, %42, %35, %24, %18, %12, %6
  %184 = load i32, ptr %2, align 4
  ret i32 %184
}