; Function Attrs: mustprogress nofree norecurse nosync nounwind ssp willreturn memory(argmem: read) uwtable
define hidden range(i32 -29, 1) i32 @_sodium_argon2_validate_inputs(ptr noundef readonly captures(address_is_null) %0) local_unnamed_addr #3 {
  %2 = icmp eq ptr %0, null
  br i1 %2, label %.thread, label %3

3:                                                ; preds = %1
  %4 = load ptr, ptr %0, align 8
  %5 = icmp eq ptr %4, null
  br i1 %5, label %.thread, label %6

6:                                                ; preds = %3
  %7 = getelementptr inbounds nuw i8, ptr %0, i64 8
  %8 = load i32, ptr %7, align 8
  %9 = icmp ult i32 %8, 16
  br i1 %9, label %.thread, label %10

10:                                               ; preds = %6
  %11 = getelementptr inbounds nuw i8, ptr %0, i64 16
  %12 = load ptr, ptr %11, align 8
  %13 = icmp eq ptr %12, null
  br i1 %13, label %14, label %17

14:                                               ; preds = %10
  %15 = getelementptr inbounds nuw i8, ptr %0, i64 24
  %16 = load i32, ptr %15, align 8
  %.not = icmp eq i32 %16, 0
  br i1 %.not, label %17, label %.thread

17:                                               ; preds = %14, %10
  %18 = getelementptr inbounds nuw i8, ptr %0, i64 32
  %19 = load ptr, ptr %18, align 8
  %20 = icmp eq ptr %19, null
  %21 = getelementptr inbounds nuw i8, ptr %0, i64 40
  %22 = load i32, ptr %21, align 8
  br i1 %20, label %23, label %24

23:                                               ; preds = %17
  %.not34 = icmp eq i32 %22, 0
  %spec.select = select i1 %.not34, i32 -6, i32 -19
  br label %.thread

24:                                               ; preds = %17
  %25 = icmp ult i32 %22, 8
  br i1 %25, label %.thread, label %26

26:                                               ; preds = %24
  %27 = getelementptr inbounds nuw i8, ptr %0, i64 48
  %28 = load ptr, ptr %27, align 8
  %29 = icmp eq ptr %28, null
  br i1 %29, label %30, label %33

30:                                               ; preds = %26
  %31 = getelementptr inbounds nuw i8, ptr %0, i64 56
  %32 = load i32, ptr %31, align 8
  %.not35 = icmp eq i32 %32, 0
  br i1 %.not35, label %33, label %.thread

33:                                               ; preds = %26, %30
  %34 = getelementptr inbounds nuw i8, ptr %0, i64 64
  %35 = load ptr, ptr %34, align 8
  %36 = icmp eq ptr %35, null
  br i1 %36, label %37, label %40

37:                                               ; preds = %33
  %38 = getelementptr inbounds nuw i8, ptr %0, i64 72
  %39 = load i32, ptr %38, align 8
  %.not36 = icmp eq i32 %39, 0
  br i1 %.not36, label %40, label %.thread

40:                                               ; preds = %33, %37
  %41 = getelementptr inbounds nuw i8, ptr %0, i64 84
  %42 = load i32, ptr %41, align 4
  %43 = icmp eq i32 %42, 0
  br i1 %43, label %.thread, label %44

44:                                               ; preds = %40
  %45 = icmp ugt i32 %42, 16777215
  br i1 %45, label %.thread, label %46

46:                                               ; preds = %44
  %47 = getelementptr inbounds nuw i8, ptr %0, i64 80
  %48 = load i32, ptr %47, align 8
  %49 = icmp ult i32 %48, 8
  %50 = shl nuw nsw i32 %42, 3
  %51 = icmp ult i32 %48, %50
  %or.cond = select i1 %49, i1 true, i1 %51
  br i1 %or.cond, label %.thread, label %52

52:                                               ; preds = %46
  %53 = getelementptr inbounds nuw i8, ptr %0, i64 76
  %54 = load i32, ptr %53, align 4
  %55 = icmp eq i32 %54, 0
  br i1 %55, label %.thread, label %56

56:                                               ; preds = %52
  %57 = getelementptr inbounds nuw i8, ptr %0, i64 88
  %58 = load i32, ptr %57, align 8
  %59 = icmp eq i32 %58, 0
  br i1 %59, label %.thread, label %60

60:                                               ; preds = %56
  %61 = icmp ugt i32 %58, 16777215
  %. = select i1 %61, i32 -29, i32 0
  br label %.thread

.thread:                                          ; preds = %23, %60, %56, %52, %46, %44, %40, %37, %30, %24, %14, %6, %3, %1
  %.0 = phi i32 [ -25, %1 ], [ -1, %3 ], [ -2, %6 ], [ -18, %14 ], [ -6, %24 ], [ -20, %30 ], [ -21, %37 ], [ -16, %40 ], [ -17, %44 ], [ -14, %46 ], [ -12, %52 ], [ -28, %56 ], [ %., %60 ], [ %spec.select, %23 ]
  ret i32 %.0
}